target datalayout = "e-m:e-p270:32:32-p271:32:32-p272:64:64-i64:64-i128:128-f80:128-n8:16:32:64-S128"
target triple = "x86_64-pc-linux-gnu"

%struct._GdkRGBA = type { double, double, double, double }
%struct.darktable_t = type { %struct.dt_codepath_t, i32, i32, ptr, ptr, ptr, ptr, ptr, ptr, ptr, ptr, ptr, ptr, ptr, ptr, ptr, ptr, ptr, ptr, ptr, ptr, ptr, ptr, ptr, ptr, ptr, ptr, ptr, ptr, ptr, [64 x %struct.dt_pthread_mutex_t], %struct.dt_pthread_mutex_t, %struct.dt_pthread_mutex_t, %struct.dt_pthread_mutex_t, %struct.dt_pthread_mutex_t, %struct.dt_pthread_mutex_t, ptr, ptr, ptr, ptr, ptr, ptr, ptr, ptr, ptr, ptr, ptr, ptr, ptr, %struct.dt_lua_state_t, ptr, double, ptr, i32, [47 x i32], i32, i32, ptr, ptr, %struct.dt_sys_resources_t, %struct.dt_backthumb_t, %struct.dt_gimp_t }
%struct.dt_codepath_t = type { i8, [3 x i8] }
%struct.dt_pthread_mutex_t = type { %union.pthread_mutex_t }
%union.pthread_mutex_t = type { %struct.__pthread_mutex_s }
%struct.__pthread_mutex_s = type { i32, i32, i32, i32, i32, i16, i16, %struct.__pthread_internal_list }
%struct.__pthread_internal_list = type { ptr, ptr }
%struct.dt_lua_state_t = type { i32 }
%struct.dt_sys_resources_t = type { i64, i64, ptr, ptr, i32 }
%struct.dt_backthumb_t = type { double, double, i32, i32, i32, i32 }
%struct.dt_gimp_t = type { i32, ptr, ptr, i32, i32 }
%struct.dt_iop_module_t = type { i32, ptr, ptr, ptr, ptr, ptr, ptr, ptr, ptr, ptr, ptr, ptr, ptr, ptr, ptr, ptr, ptr, ptr, ptr, ptr, ptr, ptr, ptr, ptr, ptr, ptr, ptr, ptr, ptr, ptr, ptr, ptr, ptr, ptr, ptr, ptr, ptr, ptr, ptr, ptr, ptr, ptr, ptr, ptr, ptr, ptr, ptr, ptr, ptr, ptr, ptr, ptr, ptr, ptr, ptr, ptr, ptr, [20 x i8], i32, i32, i32, i32, i32, i32, i32, [8 x i8], [4 x float], [4 x float], [4 x float], [4 x float], [4 x float], [4 x float], ptr, %struct.dt_dev_histogram_stats_t, [4 x i32], i32, i32, ptr, i32, i32, ptr, ptr, i32, ptr, %struct.dt_pthread_mutex_t, ptr, ptr, ptr, ptr, %struct.anon, ptr, ptr, ptr, ptr, ptr, ptr, ptr, i32, ptr, ptr, ptr, ptr, ptr, ptr, ptr, i32, ptr, i32, [128 x i8], i32, ptr, ptr, i32, [12 x i8] }
%struct.dt_dev_histogram_stats_t = type { i32, i64, i32, i32 }
%struct.anon = type { %struct.anon.0, %struct.anon.1 }
%struct.anon.0 = type { ptr, ptr }
%struct.anon.1 = type { ptr, i32 }
%struct.dt_iop_gui_blend_data_t = type { i32, i32, i32, i32, i32, i32, i32, ptr, ptr, ptr, ptr, ptr, ptr, ptr, ptr, ptr, ptr, ptr, ptr, ptr, [2 x %struct.dt_iop_gui_blendif_filter_t], ptr, ptr, ptr, ptr, ptr, ptr, ptr, ptr, ptr, ptr, ptr, ptr, i32, i32, ptr, i32, [8 x [2 x i32]], i32, i32, ptr, i32, ptr, ptr, ptr, [5 x ptr], [5 x i32], ptr, ptr, ptr, i32, ptr, ptr, i32, %struct.dt_pthread_mutex_t }
%struct.dt_iop_gui_blendif_filter_t = type { ptr, ptr, [4 x ptr], ptr, ptr, ptr }
%struct.dt_gui_gtk_t = type { ptr, %struct.dt_gui_widgets_t, %struct.dt_gui_scrollbars_t, i32, ptr, i32, [39 x %struct._GdkRGBA], i32, i32, i32, i32, i32, double, double, double, double, ptr, double, double, double, double, i32, i32, [4096 x i8], i32, i32, i32, %struct.dt_pthread_mutex_t }
%struct.dt_gui_widgets_t = type { ptr, ptr, ptr, ptr, i32, i32, i32 }
%struct.dt_gui_scrollbars_t = type { ptr, ptr, i32 }
%struct.dt_iop_gui_blendif_channel_t = type { ptr, ptr, float, i32, ptr, i32, float, [2 x i32], i32, ptr, ptr, ptr }
%struct.dt_develop_blend_params_t = type { i32, i32, i32, float, float, i32, i32, i32, float, i32, float, float, float, float, i32, [2 x i32], [64 x float], [16 x float], [20 x i8], i32, i32, i32 }

@darktable = external global %struct.darktable_t, align 8

; Function Attrs: inlinehint nounwind uwtable
define internal float @_get_boost_factor(ptr noundef %0, i32 noundef %1, i32 noundef %2) #3 {
  %4 = alloca ptr, align 8
  %5 = alloca i32, align 4
  %6 = alloca i32, align 4
  store ptr %0, ptr %4, align 8, !tbaa !31
  store i32 %1, ptr %5, align 4, !tbaa !80
  store i32 %2, ptr %6, align 4, !tbaa !80
  %7 = load ptr, ptr %4, align 8, !tbaa !31
  %8 = getelementptr inbounds nuw %struct.dt_iop_gui_blend_data_t, ptr %7, i32 0, i32 7
  %9 = load ptr, ptr %8, align 8, !tbaa !134
  %10 = getelementptr inbounds nuw %struct.dt_iop_module_t, ptr %9, i32 0, i32 86
  %11 = load ptr, ptr %10, align 8, !tbaa !77
  %12 = getelementptr inbounds nuw %struct.dt_develop_blend_params_t, ptr %11, i32 0, i32 17
  %13 = load ptr, ptr %4, align 8, !tbaa !31
  %14 = getelementptr inbounds nuw %struct.dt_iop_gui_blend_data_t, ptr %13, i32 0, i32 35
  %15 = load ptr, ptr %14, align 8, !tbaa !85
  %16 = load i32, ptr %5, align 4, !tbaa !80
  %17 = sext i32 %16 to i64
  %18 = getelementptr inbounds %struct.dt_iop_gui_blendif_channel_t, ptr %15, i64 %17
  %19 = getelementptr inbounds nuw %struct.dt_iop_gui_blendif_channel_t, ptr %18, i32 0, i32 7
  %20 = load i32, ptr %6, align 4, !tbaa !80
  %21 = sext i32 %20 to i64
  %22 = getelementptr inbounds [2 x i32], ptr %19, i64 0, i64 %21
  %23 = load i32, ptr %22, align 4, !tbaa !80
  %24 = zext i32 %23 to i64
  %25 = getelementptr inbounds nuw [16 x float], ptr %12, i64 0, i64 %24
  %26 = load float, ptr %25, align 4, !tbaa !83
  %27 = call reassoc nsz arcp contract afn float @llvm.exp2.f32(float %26)
  ret float %27
}

; Function Attrs: inlinehint nounwind uwtable
define internal i32 @dt_pthread_mutex_unlock(ptr noundef %0) #3 {
  %2 = alloca ptr, align 8
  store ptr %0, ptr %2, align 8, !tbaa !138
  %3 = load ptr, ptr %2, align 8, !tbaa !138
  %4 = getelementptr inbounds nuw %struct.dt_pthread_mutex_t, ptr %3, i32 0, i32 0
  %5 = call i32 @pthread_mutex_unlock(ptr noundef %4) #11
  ret i32 %5
}

; Function Attrs: inlinehint nounwind uwtable
define internal i32 @dt_pthread_mutex_lock(ptr noundef %0) #3 {
  %2 = alloca ptr, align 8
  store ptr %0, ptr %2, align 8, !tbaa !138
  %3 = load ptr, ptr %2, align 8, !tbaa !138
  %4 = getelementptr inbounds nuw %struct.dt_pthread_mutex_t, ptr %3, i32 0, i32 0
  %5 = call i32 @pthread_mutex_lock(ptr noundef %4) #11
  ret i32 %5
}

; Function Attrs: nounwind uwtable
define internal void @_blendop_blendif_sliders_callback(ptr noundef %0, ptr noundef %1) #0 {
  %3 = alloca ptr, align 8
  %4 = alloca ptr, align 8
  %5 = alloca ptr, align 8
  %6 = alloca ptr, align 8
  %7 = alloca i32, align 4
  %8 = alloca i32, align 4
  %9 = alloca ptr, align 8
  %10 = alloca ptr, align 8
  %11 = alloca i32, align 4
  %12 = alloca float, align 4
  %13 = alloca i32, align 4
  %14 = alloca [256 x i8], align 16
  store ptr %0, ptr %3, align 8, !tbaa !175
  store ptr %1, ptr %4, align 8, !tbaa !31
  %15 = load ptr, ptr getelementptr inbounds nuw (%struct.darktable_t, ptr @darktable, i32 0, i32 14), align 8, !tbaa !39
  %16 = getelementptr inbounds nuw %struct.dt_gui_gtk_t, ptr %15, i32 0, i32 5
  %17 = load i32, ptr %16, align 8, !tbaa !72
  %18 = icmp ne i32 %17, 0
  br i1 %18, label %19, label %20

19:                                               ; preds = %2
  br label %167

20:                                               ; preds = %2
  call void @llvm.lifetime.start.p0(i64 8, ptr %5) #11
  %21 = load ptr, ptr %4, align 8, !tbaa !31
  %22 = getelementptr inbounds nuw %struct.dt_iop_gui_blend_data_t, ptr %21, i32 0, i32 7
  %23 = load ptr, ptr %22, align 8, !tbaa !134
  %24 = getelementptr inbounds nuw %struct.dt_iop_module_t, ptr %23, i32 0, i32 86
  %25 = load ptr, ptr %24, align 8, !tbaa !77
  store ptr %25, ptr %5, align 8, !tbaa !78
  call void @llvm.lifetime.start.p0(i64 8, ptr %6) #11
  %26 = load ptr, ptr %4, align 8, !tbaa !31
  %27 = getelementptr inbounds nuw %struct.dt_iop_gui_blend_data_t, ptr %26, i32 0, i32 35
  %28 = load ptr, ptr %27, align 8, !tbaa !85
  %29 = load ptr, ptr %4, align 8, !tbaa !31
  %30 = getelementptr inbounds nuw %struct.dt_iop_gui_blend_data_t, ptr %29, i32 0, i32 36
  %31 = load i32, ptr %30, align 8, !tbaa !79
  %32 = sext i32 %31 to i64
  %33 = getelementptr inbounds %struct.dt_iop_gui_blendif_channel_t, ptr %28, i64 %32
  store ptr %33, ptr %6, align 8, !tbaa !86
  call void @llvm.lifetime.start.p0(i64 4, ptr %7) #11
  %34 = load ptr, ptr %3, align 8, !tbaa !175
  %35 = load ptr, ptr %4, align 8, !tbaa !31
  %36 = getelementptr inbounds nuw %struct.dt_iop_gui_blend_data_t, ptr %35, i32 0, i32 20
  %37 = getelementptr inbounds [2 x %struct.dt_iop_gui_blendif_filter_t], ptr %36, i64 0, i64 1
  %38 = getelementptr inbounds nuw %struct.dt_iop_gui_blendif_filter_t, ptr %37, i32 0, i32 0
  %39 = load ptr, ptr %38, align 8, !tbaa !121
  %40 = icmp eq ptr %34, %39
  %41 = select i1 %40, i32 1, i32 0
  store i32 %41, ptr %7, align 4, !tbaa !80
  call void @llvm.lifetime.start.p0(i64 4, ptr %8) #11
  %42 = load ptr, ptr %6, align 8, !tbaa !86
  %43 = getelementptr inbounds nuw %struct.dt_iop_gui_blendif_channel_t, ptr %42, i32 0, i32 7
  %44 = load i32, ptr %7, align 4, !tbaa !80
  %45 = sext i32 %44 to i64
  %46 = getelementptr inbounds [2 x i32], ptr %43, i64 0, i64 %45
  %47 = load i32, ptr %46, align 4, !tbaa !80
  store i32 %47, ptr %8, align 4, !tbaa !80
  call void @llvm.lifetime.start.p0(i64 8, ptr %9) #11
  %48 = load ptr, ptr %4, align 8, !tbaa !31
  %49 = getelementptr inbounds nuw %struct.dt_iop_gui_blend_data_t, ptr %48, i32 0, i32 20
  %50 = load i32, ptr %7, align 4, !tbaa !80
  %51 = sext i32 %50 to i64
  %52 = getelementptr inbounds [2 x %struct.dt_iop_gui_blendif_filter_t], ptr %49, i64 0, i64 %51
  %53 = getelementptr inbounds nuw %struct.dt_iop_gui_blendif_filter_t, ptr %52, i32 0, i32 2
  %54 = getelementptr inbounds [4 x ptr], ptr %53, i64 0, i64 0
  store ptr %54, ptr %9, align 8, !tbaa !176
  %55 = load ptr, ptr %4, align 8, !tbaa !31
  %56 = getelementptr inbounds nuw %struct.dt_iop_gui_blend_data_t, ptr %55, i32 0, i32 18
  %57 = load ptr, ptr %56, align 8, !tbaa !133
  %58 = call i64 @gtk_toggle_button_get_type() #12
  %59 = call ptr @g_type_check_instance_cast(ptr noundef %57, i64 noundef %58)
  %60 = call i32 @gtk_toggle_button_get_active(ptr noundef %59)
  %61 = icmp ne i32 %60, 0
  br i1 %61, label %74, label %62

62:                                               ; preds = %20
  %63 = load ptr, ptr %4, align 8, !tbaa !31
  %64 = getelementptr inbounds nuw %struct.dt_iop_gui_blend_data_t, ptr %63, i32 0, i32 19
  %65 = load ptr, ptr %64, align 8, !tbaa !33
  %66 = call i64 @gtk_toggle_button_get_type() #12
  %67 = call ptr @g_type_check_instance_cast(ptr noundef %65, i64 noundef %66)
  %68 = call i32 @gtk_toggle_button_get_active(ptr noundef %67)
  %69 = icmp ne i32 %68, 0
  br i1 %69, label %74, label %70

70:                                               ; preds = %62
  %71 = load ptr, ptr %4, align 8, !tbaa !31
  %72 = getelementptr inbounds nuw %struct.dt_iop_gui_blend_data_t, ptr %71, i32 0, i32 7
  %73 = load ptr, ptr %72, align 8, !tbaa !134
  call void @dt_iop_color_picker_reset(ptr noundef %73, i32 noundef 0)
  br label %74

74:                                               ; preds = %70, %62, %20
  call void @llvm.lifetime.start.p0(i64 8, ptr %10) #11
  %75 = load ptr, ptr %5, align 8, !tbaa !78
  %76 = getelementptr inbounds nuw %struct.dt_develop_blend_params_t, ptr %75, i32 0, i32 16
  %77 = load i32, ptr %8, align 4, !tbaa !80
  %78 = mul i32 4, %77
  %79 = zext i32 %78 to i64
  %80 = getelementptr inbounds nuw [64 x float], ptr %76, i64 0, i64 %79
  store ptr %80, ptr %10, align 8, !tbaa !89
  %81 = load ptr, ptr %4, align 8, !tbaa !31
  %82 = getelementptr inbounds nuw %struct.dt_iop_gui_blend_data_t, ptr %81, i32 0, i32 54
  %83 = call i32 @dt_pthread_mutex_lock(ptr noundef %82)
  call void @llvm.lifetime.start.p0(i64 4, ptr %11) #11
  store i32 0, ptr %11, align 4, !tbaa !80
  br label %84

84:                                               ; preds = %97, %74
  %85 = load i32, ptr %11, align 4, !tbaa !80
  %86 = icmp slt i32 %85, 4
  br i1 %86, label %88, label %87

87:                                               ; preds = %84
  call void @llvm.lifetime.end.p0(i64 4, ptr %11) #11
  br label %100

88:                                               ; preds = %84
  %89 = load ptr, ptr %3, align 8, !tbaa !175
  %90 = load i32, ptr %11, align 4, !tbaa !80
  %91 = call reassoc nsz arcp contract afn double @dtgtk_gradient_slider_multivalue_get_value(ptr noundef %89, i32 noundef %90)
  %92 = fptrunc reassoc nsz arcp contract afn double %91 to float
  %93 = load ptr, ptr %10, align 8, !tbaa !89
  %94 = load i32, ptr %11, align 4, !tbaa !80
  %95 = sext i32 %94 to i64
  %96 = getelementptr inbounds float, ptr %93, i64 %95
  store float %92, ptr %96, align 4, !tbaa !83
  br label %97

97:                                               ; preds = %88
  %98 = load i32, ptr %11, align 4, !tbaa !80
  %99 = add nsw i32 %98, 1
  store i32 %99, ptr %11, align 4, !tbaa !80
  br label %84

100:                                              ; preds = %87
  %101 = load ptr, ptr %4, align 8, !tbaa !31
  %102 = getelementptr inbounds nuw %struct.dt_iop_gui_blend_data_t, ptr %101, i32 0, i32 54
  %103 = call i32 @dt_pthread_mutex_unlock(ptr noundef %102)
  call void @llvm.lifetime.start.p0(i64 4, ptr %12) #11
  %104 = load ptr, ptr %4, align 8, !tbaa !31
  %105 = load ptr, ptr %4, align 8, !tbaa !31
  %106 = getelementptr inbounds nuw %struct.dt_iop_gui_blend_data_t, ptr %105, i32 0, i32 36
  %107 = load i32, ptr %106, align 8, !tbaa !79
  %108 = load i32, ptr %7, align 4, !tbaa !80
  %109 = call reassoc nsz arcp contract afn float @_get_boost_factor(ptr noundef %104, i32 noundef %107, i32 noundef %108)
  store float %109, ptr %12, align 4, !tbaa !83
  call void @llvm.lifetime.start.p0(i64 4, ptr %13) #11
  store i32 0, ptr %13, align 4, !tbaa !80
  br label %110

110:                                              ; preds = %131, %100
  %111 = load i32, ptr %13, align 4, !tbaa !80
  %112 = icmp slt i32 %111, 4
  br i1 %112, label %114, label %113

113:                                              ; preds = %110
  call void @llvm.lifetime.end.p0(i64 4, ptr %13) #11
  br label %134

114:                                              ; preds = %110
  call void @llvm.lifetime.start.p0(i64 256, ptr %14) #11
  %115 = load ptr, ptr %6, align 8, !tbaa !86
  %116 = getelementptr inbounds nuw %struct.dt_iop_gui_blendif_channel_t, ptr %115, i32 0, i32 9
  %117 = load ptr, ptr %116, align 8, !tbaa !125
  %118 = load ptr, ptr %10, align 8, !tbaa !89
  %119 = load i32, ptr %13, align 4, !tbaa !80
  %120 = sext i32 %119 to i64
  %121 = getelementptr inbounds float, ptr %118, i64 %120
  %122 = load float, ptr %121, align 4, !tbaa !83
  %123 = load float, ptr %12, align 4, !tbaa !83
  %124 = getelementptr inbounds [256 x i8], ptr %14, i64 0, i64 0
  call void %117(float noundef %122, float noundef %123, ptr noundef %124, i32 noundef 256)
  %125 = load ptr, ptr %9, align 8, !tbaa !176
  %126 = load i32, ptr %13, align 4, !tbaa !80
  %127 = sext i32 %126 to i64
  %128 = getelementptr inbounds ptr, ptr %125, i64 %127
  %129 = load ptr, ptr %128, align 8, !tbaa !128
  %130 = getelementptr inbounds [256 x i8], ptr %14, i64 0, i64 0
  call void @gtk_label_set_text(ptr noundef %129, ptr noundef %130)
  call void @llvm.lifetime.end.p0(i64 256, ptr %14) #11
  br label %131

131:                                              ; preds = %114
  %132 = load i32, ptr %13, align 4, !tbaa !80
  %133 = add nsw i32 %132, 1
  store i32 %133, ptr %13, align 4, !tbaa !80
  br label %110

134:                                              ; preds = %113
  %135 = load ptr, ptr %10, align 8, !tbaa !89
  %136 = getelementptr inbounds float, ptr %135, i64 1
  %137 = load float, ptr %136, align 4, !tbaa !83
  %138 = fcmp reassoc nsz arcp contract afn oeq float %137, 0.000000e+00
  br i1 %138, label %139, label %152

139:                                              ; preds = %134
  %140 = load ptr, ptr %10, align 8, !tbaa !89
  %141 = getelementptr inbounds float, ptr %140, i64 2
  %142 = load float, ptr %141, align 4, !tbaa !83
  %143 = fcmp reassoc nsz arcp contract afn oeq float %142, 1.000000e+00
  br i1 %143, label %144, label %152

144:                                              ; preds = %139
  %145 = load i32, ptr %8, align 4, !tbaa !80
  %146 = shl i32 1, %145
  %147 = xor i32 %146, -1
  %148 = load ptr, ptr %5, align 8, !tbaa !78
  %149 = getelementptr inbounds nuw %struct.dt_develop_blend_params_t, ptr %148, i32 0, i32 7
  %150 = load i32, ptr %149, align 4, !tbaa !129
  %151 = and i32 %150, %147
  store i32 %151, ptr %149, align 4, !tbaa !129
  br label %159

152:                                              ; preds = %139, %134
  %153 = load i32, ptr %8, align 4, !tbaa !80
  %154 = shl i32 1, %153
  %155 = load ptr, ptr %5, align 8, !tbaa !78
  %156 = getelementptr inbounds nuw %struct.dt_develop_blend_params_t, ptr %155, i32 0, i32 7
  %157 = load i32, ptr %156, align 4, !tbaa !129
  %158 = or i32 %157, %154
  store i32 %158, ptr %156, align 4, !tbaa !129
  br label %159

159:                                              ; preds = %152, %144
  %160 = load ptr, ptr getelementptr inbounds nuw (%struct.darktable_t, ptr @darktable, i32 0, i32 9), align 8, !tbaa !132
  %161 = load ptr, ptr %4, align 8, !tbaa !31
  %162 = getelementptr inbounds nuw %struct.dt_iop_gui_blend_data_t, ptr %161, i32 0, i32 7
  %163 = load ptr, ptr %162, align 8, !tbaa !134
  call void @dt_dev_add_history_item(ptr noundef %160, ptr noundef %163, i32 noundef 1)
  %164 = load ptr, ptr %4, align 8, !tbaa !31
  %165 = getelementptr inbounds nuw %struct.dt_iop_gui_blend_data_t, ptr %164, i32 0, i32 7
  %166 = load ptr, ptr %165, align 8, !tbaa !134
  call void @_blendop_blendif_highlight_changed_tabs(ptr noundef %166)
  call void @llvm.lifetime.end.p0(i64 4, ptr %12) #11
  call void @llvm.lifetime.end.p0(i64 8, ptr %10) #11
  call void @llvm.lifetime.end.p0(i64 8, ptr %9) #11
  call void @llvm.lifetime.end.p0(i64 4, ptr %8) #11
  call void @llvm.lifetime.end.p0(i64 4, ptr %7) #11
  call void @llvm.lifetime.end.p0(i64 8, ptr %6) #11
  call void @llvm.lifetime.end.p0(i64 8, ptr %5) #11
  br label %167

167:                                              ; preds = %159, %19
  ret void
}