; Function Attrs: nounwind uwtable
define internal void @_blendop_blendif_sliders_callback(ptr noundef %0, ptr noundef %1) #0 {
  %3 = alloca [256 x i8], align 16
  %4 = load ptr, ptr getelementptr inbounds nuw (i8, ptr @darktable, i64 104), align 8, !tbaa !33
  %5 = getelementptr inbounds nuw i8, ptr %4, i64 96
  %6 = load i32, ptr %5, align 8, !tbaa !66
  %.not = icmp eq i32 %6, 0
  br i1 %.not, label %7, label %93

7:                                                ; preds = %2
  %8 = getelementptr inbounds nuw i8, ptr %1, i64 32
  %9 = load ptr, ptr %8, align 8, !tbaa !79
  %10 = getelementptr inbounds nuw i8, ptr %9, i64 760
  %11 = load ptr, ptr %10, align 8, !tbaa !71
  %12 = getelementptr inbounds nuw i8, ptr %1, i64 384
  %13 = load ptr, ptr %12, align 8, !tbaa !76
  %14 = getelementptr inbounds nuw i8, ptr %1, i64 392
  %15 = load i32, ptr %14, align 8, !tbaa !72
  %16 = sext i32 %15 to i64
  %17 = getelementptr inbounds %struct.dt_iop_gui_blendif_channel_t, ptr %13, i64 %16
  %18 = getelementptr inbounds nuw i8, ptr %1, i64 136
  %19 = getelementptr inbounds nuw i8, ptr %1, i64 208
  %20 = load ptr, ptr %19, align 8, !tbaa !108
  %21 = icmp eq ptr %0, %20
  %22 = getelementptr inbounds nuw i8, ptr %17, i64 40
  %23 = zext i1 %21 to i64
  %24 = getelementptr inbounds nuw [2 x i32], ptr %22, i64 0, i64 %23
  %25 = load i32, ptr %24, align 4, !tbaa !77
  %.offs = select i1 %21, i64 88, i64 16
  %26 = getelementptr inbounds nuw i8, ptr %18, i64 %.offs
  %27 = getelementptr inbounds nuw i8, ptr %1, i64 120
  %28 = load ptr, ptr %27, align 8, !tbaa !120
  %29 = tail call i64 @gtk_toggle_button_get_type() #19
  %30 = tail call ptr @g_type_check_instance_cast(ptr noundef %28, i64 noundef %29) #18
  %31 = tail call i32 @gtk_toggle_button_get_active(ptr noundef %30) #18
  %.not41 = icmp eq i32 %31, 0
  br i1 %.not41, label %32, label %39

32:                                               ; preds = %7
  %33 = getelementptr inbounds nuw i8, ptr %1, i64 128
  %34 = load ptr, ptr %33, align 8, !tbaa !27
  %35 = tail call ptr @g_type_check_instance_cast(ptr noundef %34, i64 noundef %29) #18
  %36 = tail call i32 @gtk_toggle_button_get_active(ptr noundef %35) #18
  %.not42 = icmp eq i32 %36, 0
  br i1 %.not42, label %37, label %39

37:                                               ; preds = %32
  %38 = load ptr, ptr %8, align 8, !tbaa !79
  tail call void @dt_iop_color_picker_reset(ptr noundef %38, i32 noundef 0) #18
  br label %39

39:                                               ; preds = %37, %32, %7
  %40 = getelementptr inbounds nuw i8, ptr %11, i64 68
  %41 = shl i32 %25, 2
  %42 = zext i32 %41 to i64
  %43 = getelementptr inbounds nuw [64 x float], ptr %40, i64 0, i64 %42
  %44 = getelementptr inbounds nuw i8, ptr %1, i64 632
  %45 = tail call i32 @pthread_mutex_lock(ptr noundef nonnull %44) #18
  br label %59

46:                                               ; preds = %59
  %47 = tail call i32 @pthread_mutex_unlock(ptr noundef nonnull %44) #18
  %48 = load i32, ptr %14, align 8, !tbaa !72
  %.val = load ptr, ptr %8, align 8, !tbaa !79
  %.val43 = load ptr, ptr %12, align 8, !tbaa !76
  %49 = getelementptr i8, ptr %.val, i64 760
  %.val.val = load ptr, ptr %49, align 8, !tbaa !71
  %50 = getelementptr inbounds nuw i8, ptr %.val.val, i64 324
  %51 = sext i32 %48 to i64
  %52 = getelementptr inbounds %struct.dt_iop_gui_blendif_channel_t, ptr %.val43, i64 %51, i32 7, i64 %23
  %53 = load i32, ptr %52, align 4, !tbaa !77
  %54 = zext i32 %53 to i64
  %55 = getelementptr inbounds nuw [16 x float], ptr %50, i64 0, i64 %54
  %56 = load float, ptr %55, align 4, !tbaa !74
  %57 = tail call reassoc nsz arcp contract afn float @llvm.exp2.f32(float %56)
  %58 = getelementptr inbounds nuw i8, ptr %17, i64 56
  br label %68

59:                                               ; preds = %39, %59
  %indvars.iv = phi i64 [ 0, %39 ], [ %indvars.iv.next, %59 ]
  %60 = trunc nuw nsw i64 %indvars.iv to i32
  %61 = tail call reassoc nsz arcp contract afn double @dtgtk_gradient_slider_multivalue_get_value(ptr noundef %0, i32 noundef %60) #18
  %62 = fptrunc reassoc nsz arcp contract afn double %61 to float
  %63 = getelementptr inbounds nuw float, ptr %43, i64 %indvars.iv
  store float %62, ptr %63, align 4, !tbaa !74
  %indvars.iv.next = add nuw nsw i64 %indvars.iv, 1
  %exitcond.not = icmp eq i64 %indvars.iv.next, 4
  br i1 %exitcond.not, label %46, label %59

64:                                               ; preds = %68
  %65 = getelementptr inbounds nuw i8, ptr %43, i64 4
  %66 = load float, ptr %65, align 4, !tbaa !74
  %67 = fcmp reassoc nsz arcp contract afn oeq float %66, 0.000000e+00
  br i1 %67, label %74, label %84

68:                                               ; preds = %46, %68
  %indvars.iv47 = phi i64 [ 0, %46 ], [ %indvars.iv.next48, %68 ]
  call void @llvm.lifetime.start.p0(i64 256, ptr nonnull %3) #18
  %69 = load ptr, ptr %58, align 8, !tbaa !112
  %70 = getelementptr inbounds nuw float, ptr %43, i64 %indvars.iv47
  %71 = load float, ptr %70, align 4, !tbaa !74
  call void %69(float noundef %71, float noundef %57, ptr noundef nonnull %3, i32 noundef 256) #18
  %72 = getelementptr inbounds nuw ptr, ptr %26, i64 %indvars.iv47
  %73 = load ptr, ptr %72, align 8, !tbaa !115
  call void @gtk_label_set_text(ptr noundef %73, ptr noundef nonnull %3) #18
  call void @llvm.lifetime.end.p0(i64 256, ptr nonnull %3) #18
  %indvars.iv.next48 = add nuw nsw i64 %indvars.iv47, 1
  %exitcond50.not = icmp eq i64 %indvars.iv.next48, 4
  br i1 %exitcond50.not, label %64, label %68

74:                                               ; preds = %64
  %75 = getelementptr inbounds nuw i8, ptr %43, i64 8
  %76 = load float, ptr %75, align 4, !tbaa !74
  %77 = fcmp reassoc nsz arcp contract afn oeq float %76, 1.000000e+00
  br i1 %77, label %78, label %84

78:                                               ; preds = %74
  %79 = shl nuw i32 1, %25
  %80 = xor i32 %79, -1
  %81 = getelementptr inbounds nuw i8, ptr %11, i64 28
  %82 = load i32, ptr %81, align 4, !tbaa !116
  %83 = and i32 %82, %80
  store i32 %83, ptr %81, align 4, !tbaa !116
  br label %89

84:                                               ; preds = %74, %64
  %85 = shl nuw i32 1, %25
  %86 = getelementptr inbounds nuw i8, ptr %11, i64 28
  %87 = load i32, ptr %86, align 4, !tbaa !116
  %88 = or i32 %87, %85
  store i32 %88, ptr %86, align 4, !tbaa !116
  br label %89

89:                                               ; preds = %84, %78
  %90 = load ptr, ptr getelementptr inbounds nuw (i8, ptr @darktable, i64 64), align 8, !tbaa !119
  %91 = load ptr, ptr %8, align 8, !tbaa !79
  call void @dt_dev_add_history_item(ptr noundef %90, ptr noundef %91, i32 noundef 1) #18
  %92 = load ptr, ptr %8, align 8, !tbaa !79
  call fastcc void @_blendop_blendif_highlight_changed_tabs(ptr noundef %92)
  br label %93

93:                                               ; preds = %2, %89
  ret void
}